; Function Attrs: mustprogress uwtable
define noundef double @_ZNK8QuantLib27YoYCapFloorTermPriceSurface14atmYoYSwapRateERKNS_6PeriodEb(ptr noundef nonnull align 8 dereferenceable(400) %this, ptr noundef nonnull align 4 dereferenceable(8) %d, i1 noundef zeroext %extrapolate) unnamed_addr #3 align 2 {
entry:
  %ref.tmp = alloca %"class.QuantLib::Date", align 8
  call void @llvm.lifetime.start.p0(i64 8, ptr nonnull %ref.tmp) #17
  %vtable = load ptr, ptr %this, align 8, !tbaa !14
  %vfn = getelementptr inbounds i8, ptr %vtable, i64 280
  %0 = load ptr, ptr %vfn, align 8
  %call = tail call i64 %0(ptr noundef nonnull align 8 dereferenceable(400) %this, ptr noundef nonnull align 4 dereferenceable(8) %d)
  store i64 %call, ptr %ref.tmp, align 8
  %vtable2 = load ptr, ptr %this, align 8, !tbaa !14
  %vfn3 = getelementptr inbounds i8, ptr %vtable2, i64 160
  %1 = load ptr, ptr %vfn3, align 8
  %call4 = call noundef double %1(ptr noundef nonnull align 8 dereferenceable(400) %this, ptr noundef nonnull align 8 dereferenceable(8) %ref.tmp, i1 noundef zeroext %extrapolate)
  call void @llvm.lifetime.end.p0(i64 8, ptr nonnull %ref.tmp) #17
  ret double %call4
}